target datalayout = "e-m:e-p270:32:32-p271:32:32-p272:64:64-i64:64-i128:128-f80:128-n8:16:32:64-S128"
target triple = "x86_64-pc-linux-gnu"

%struct.ossl_ex_data_global_st = type { ptr, [18 x %struct.ex_callbacks_st] }
%struct.ex_callbacks_st = type { ptr }
%struct.ex_callback_st = type { i64, ptr, i32, ptr, ptr, ptr }

@.str = private unnamed_addr constant [28 x i8] c"../openssl/crypto/ex_data.c\00", align 1
@__func__.get_and_lock = private unnamed_addr constant [13 x i8] c"get_and_lock\00", align 1

; Function Attrs: inlinehint nounwind uwtable
define internal ptr @sk_EX_CALLBACK_value(ptr noundef %0, i32 noundef %1) #3 {
  %3 = alloca ptr, align 8
  %4 = alloca i32, align 4
  store ptr %0, ptr %3, align 8, !tbaa !21
  store i32 %1, ptr %4, align 4, !tbaa !12
  %5 = load ptr, ptr %3, align 8, !tbaa !21
  %6 = load i32, ptr %4, align 4, !tbaa !12
  %7 = call ptr @OPENSSL_sk_value(ptr noundef %5, i32 noundef %6)
  ret ptr %7
}

; Function Attrs: inlinehint nounwind uwtable
define internal i32 @sk_EX_CALLBACK_num(ptr noundef %0) #3 {
  %2 = alloca ptr, align 8
  store ptr %0, ptr %2, align 8, !tbaa !21
  %3 = load ptr, ptr %2, align 8, !tbaa !21
  %4 = call i32 @OPENSSL_sk_num(ptr noundef %3)
  ret i32 %4
}

; Function Attrs: nounwind uwtable
define internal ptr @get_and_lock(ptr noundef %0, i32 noundef %1, i32 noundef %2) #0 {
  %4 = alloca ptr, align 8
  %5 = alloca ptr, align 8
  %6 = alloca i32, align 4
  %7 = alloca i32, align 4
  %8 = alloca ptr, align 8
  %9 = alloca i32, align 4
  store ptr %0, ptr %5, align 8, !tbaa !8
  store i32 %1, ptr %6, align 4, !tbaa !12
  store i32 %2, ptr %7, align 4, !tbaa !12
  call void @llvm.lifetime.start.p0(i64 8, ptr %8) #4
  %10 = load i32, ptr %6, align 4, !tbaa !12
  %11 = icmp slt i32 %10, 0
  br i1 %11, label %15, label %12

12:                                               ; preds = %3
  %13 = load i32, ptr %6, align 4, !tbaa !12
  %14 = icmp sge i32 %13, 18
  br i1 %14, label %15, label %16

15:                                               ; preds = %12, %3
  call void @ERR_new()
  call void @ERR_set_debug(ptr noundef @.str, i32 noundef 37, ptr noundef @__func__.get_and_lock)
  call void (i32, i32, ptr, ...) @ERR_set_error(i32 noundef 15, i32 noundef 524550, ptr noundef null)
  store ptr null, ptr %4, align 8
  store i32 1, ptr %9, align 4
  br label %48

16:                                               ; preds = %12
  %17 = load ptr, ptr %5, align 8, !tbaa !8
  %18 = getelementptr inbounds nuw %struct.ossl_ex_data_global_st, ptr %17, i32 0, i32 0
  %19 = load ptr, ptr %18, align 8, !tbaa !10
  %20 = icmp eq ptr %19, null
  br i1 %20, label %21, label %22

21:                                               ; preds = %16
  store ptr null, ptr %4, align 8
  store i32 1, ptr %9, align 4
  br label %48

22:                                               ; preds = %16
  %23 = load i32, ptr %7, align 4, !tbaa !12
  %24 = icmp ne i32 %23, 0
  br i1 %24, label %25, label %33

25:                                               ; preds = %22
  %26 = load ptr, ptr %5, align 8, !tbaa !8
  %27 = getelementptr inbounds nuw %struct.ossl_ex_data_global_st, ptr %26, i32 0, i32 0
  %28 = load ptr, ptr %27, align 8, !tbaa !10
  %29 = call i32 @CRYPTO_THREAD_read_lock(ptr noundef %28)
  %30 = icmp ne i32 %29, 0
  br i1 %30, label %32, label %31

31:                                               ; preds = %25
  store ptr null, ptr %4, align 8
  store i32 1, ptr %9, align 4
  br label %48

32:                                               ; preds = %25
  br label %41

33:                                               ; preds = %22
  %34 = load ptr, ptr %5, align 8, !tbaa !8
  %35 = getelementptr inbounds nuw %struct.ossl_ex_data_global_st, ptr %34, i32 0, i32 0
  %36 = load ptr, ptr %35, align 8, !tbaa !10
  %37 = call i32 @CRYPTO_THREAD_write_lock(ptr noundef %36)
  %38 = icmp ne i32 %37, 0
  br i1 %38, label %40, label %39

39:                                               ; preds = %33
  store ptr null, ptr %4, align 8
  store i32 1, ptr %9, align 4
  br label %48

40:                                               ; preds = %33
  br label %41

41:                                               ; preds = %40, %32
  %42 = load ptr, ptr %5, align 8, !tbaa !8
  %43 = getelementptr inbounds nuw %struct.ossl_ex_data_global_st, ptr %42, i32 0, i32 1
  %44 = load i32, ptr %6, align 4, !tbaa !12
  %45 = sext i32 %44 to i64
  %46 = getelementptr inbounds [18 x %struct.ex_callbacks_st], ptr %43, i64 0, i64 %45
  store ptr %46, ptr %8, align 8, !tbaa !14
  %47 = load ptr, ptr %8, align 8, !tbaa !14
  store ptr %47, ptr %4, align 8
  store i32 1, ptr %9, align 4
  br label %48

48:                                               ; preds = %41, %39, %31, %21, %15
  call void @llvm.lifetime.end.p0(i64 8, ptr %8) #4
  %49 = load ptr, ptr %4, align 8
  ret ptr %49
}

; Function Attrs: nounwind uwtable
define i32 @ossl_crypto_free_ex_index_ex(ptr noundef %0, i32 noundef %1, i32 noundef %2) #0 {
  %4 = alloca i32, align 4
  %5 = alloca ptr, align 8
  %6 = alloca i32, align 4
  %7 = alloca i32, align 4
  %8 = alloca ptr, align 8
  %9 = alloca ptr, align 8
  %10 = alloca i32, align 4
  %11 = alloca ptr, align 8
  %12 = alloca i32, align 4
  store ptr %0, ptr %5, align 8, !tbaa !3
  store i32 %1, ptr %6, align 4, !tbaa !12
  store i32 %2, ptr %7, align 4, !tbaa !12
  call void @llvm.lifetime.start.p0(i64 8, ptr %8) #4
  call void @llvm.lifetime.start.p0(i64 8, ptr %9) #4
  call void @llvm.lifetime.start.p0(i64 4, ptr %10) #4
  store i32 0, ptr %10, align 4, !tbaa !12
  call void @llvm.lifetime.start.p0(i64 8, ptr %11) #4
  %13 = load ptr, ptr %5, align 8, !tbaa !3
  %14 = call ptr @ossl_lib_ctx_get_ex_data_global(ptr noundef %13)
  store ptr %14, ptr %11, align 8, !tbaa !8
  %15 = load ptr, ptr %11, align 8, !tbaa !8
  %16 = icmp eq ptr %15, null
  br i1 %16, label %17, label %18

17:                                               ; preds = %3
  store i32 0, ptr %4, align 4
  store i32 1, ptr %12, align 4
  br label %58

18:                                               ; preds = %3
  %19 = load ptr, ptr %11, align 8, !tbaa !8
  %20 = load i32, ptr %6, align 4, !tbaa !12
  %21 = call ptr @get_and_lock(ptr noundef %19, i32 noundef %20, i32 noundef 0)
  store ptr %21, ptr %8, align 8, !tbaa !14
  %22 = load ptr, ptr %8, align 8, !tbaa !14
  %23 = icmp eq ptr %22, null
  br i1 %23, label %24, label %25

24:                                               ; preds = %18
  store i32 0, ptr %4, align 4
  store i32 1, ptr %12, align 4
  br label %58

25:                                               ; preds = %18
  %26 = load i32, ptr %7, align 4, !tbaa !12
  %27 = icmp slt i32 %26, 0
  br i1 %27, label %35, label %28

28:                                               ; preds = %25
  %29 = load i32, ptr %7, align 4, !tbaa !12
  %30 = load ptr, ptr %8, align 8, !tbaa !14
  %31 = getelementptr inbounds nuw %struct.ex_callbacks_st, ptr %30, i32 0, i32 0
  %32 = load ptr, ptr %31, align 8, !tbaa !16
  %33 = call i32 @sk_EX_CALLBACK_num(ptr noundef %32)
  %34 = icmp sge i32 %29, %33
  br i1 %34, label %35, label %36

35:                                               ; preds = %28, %25
  br label %52

36:                                               ; preds = %28
  %37 = load ptr, ptr %8, align 8, !tbaa !14
  %38 = getelementptr inbounds nuw %struct.ex_callbacks_st, ptr %37, i32 0, i32 0
  %39 = load ptr, ptr %38, align 8, !tbaa !16
  %40 = load i32, ptr %7, align 4, !tbaa !12
  %41 = call ptr @sk_EX_CALLBACK_value(ptr noundef %39, i32 noundef %40)
  store ptr %41, ptr %9, align 8, !tbaa !23
  %42 = load ptr, ptr %9, align 8, !tbaa !23
  %43 = icmp eq ptr %42, null
  br i1 %43, label %44, label %45

44:                                               ; preds = %36
  br label %52

45:                                               ; preds = %36
  %46 = load ptr, ptr %9, align 8, !tbaa !23
  %47 = getelementptr inbounds nuw %struct.ex_callback_st, ptr %46, i32 0, i32 3
  store ptr @dummy_new, ptr %47, align 8, !tbaa !25
  %48 = load ptr, ptr %9, align 8, !tbaa !23
  %49 = getelementptr inbounds nuw %struct.ex_callback_st, ptr %48, i32 0, i32 5
  store ptr @dummy_dup, ptr %49, align 8, !tbaa !28
  %50 = load ptr, ptr %9, align 8, !tbaa !23
  %51 = getelementptr inbounds nuw %struct.ex_callback_st, ptr %50, i32 0, i32 4
  store ptr @dummy_free, ptr %51, align 8, !tbaa !29
  store i32 1, ptr %10, align 4, !tbaa !12
  br label %52

52:                                               ; preds = %45, %44, %35
  %53 = load ptr, ptr %11, align 8, !tbaa !8
  %54 = getelementptr inbounds nuw %struct.ossl_ex_data_global_st, ptr %53, i32 0, i32 0
  %55 = load ptr, ptr %54, align 8, !tbaa !10
  %56 = call i32 @CRYPTO_THREAD_unlock(ptr noundef %55)
  %57 = load i32, ptr %10, align 4, !tbaa !12
  store i32 %57, ptr %4, align 4
  store i32 1, ptr %12, align 4
  br label %58

58:                                               ; preds = %52, %24, %17
  call void @llvm.lifetime.end.p0(i64 8, ptr %11) #4
  call void @llvm.lifetime.end.p0(i64 4, ptr %10) #4
  call void @llvm.lifetime.end.p0(i64 8, ptr %9) #4
  call void @llvm.lifetime.end.p0(i64 8, ptr %8) #4
  %59 = load i32, ptr %4, align 4
  ret i32 %59
}