; Function Attrs: nounwind uwtable
define range(i32 0, 2) i32 @ossl_crypto_free_ex_index_ex(ptr noundef %0, i32 noundef %1, i32 noundef %2) local_unnamed_addr #0 {
  %4 = tail call ptr @ossl_lib_ctx_get_ex_data_global(ptr noundef %0) #9
  %5 = icmp eq ptr %4, null
  br i1 %5, label %get_and_lock.exit.thread, label %6

6:                                                ; preds = %3
  %or.cond.i = icmp ugt i32 %1, 17
  br i1 %or.cond.i, label %7, label %8

7:                                                ; preds = %6
  tail call void @ERR_new() #9
  tail call void @ERR_set_debug(ptr noundef nonnull @.str, i32 noundef 37, ptr noundef nonnull @__func__.get_and_lock) #9
  tail call void (i32, i32, ptr, ...) @ERR_set_error(i32 noundef 15, i32 noundef 524550, ptr noundef null) #9
  br label %get_and_lock.exit.thread

8:                                                ; preds = %6
  %9 = load ptr, ptr %4, align 8, !tbaa !3
  %10 = icmp eq ptr %9, null
  br i1 %10, label %get_and_lock.exit.thread, label %11

11:                                               ; preds = %8
  %12 = tail call i32 @CRYPTO_THREAD_write_lock(ptr noundef nonnull %9) #9
  %.not12.i = icmp eq i32 %12, 0
  br i1 %.not12.i, label %get_and_lock.exit.thread, label %13

13:                                               ; preds = %11
  %14 = getelementptr inbounds nuw i8, ptr %4, i64 8
  %15 = zext nneg i32 %1 to i64
  %16 = getelementptr inbounds nuw [18 x %struct.ex_callbacks_st], ptr %14, i64 0, i64 %15
  %17 = icmp slt i32 %2, 0
  br i1 %17, label %29, label %18

18:                                               ; preds = %13
  %19 = load ptr, ptr %16, align 8, !tbaa !8
  %20 = tail call i32 @OPENSSL_sk_num(ptr noundef %19) #9
  %.not = icmp slt i32 %2, %20
  br i1 %.not, label %21, label %29

21:                                               ; preds = %18
  %22 = load ptr, ptr %16, align 8, !tbaa !8
  %23 = tail call ptr @OPENSSL_sk_value(ptr noundef %22, i32 noundef %2) #9
  %24 = icmp eq ptr %23, null
  br i1 %24, label %29, label %25

25:                                               ; preds = %21
  %26 = getelementptr inbounds nuw i8, ptr %23, i64 24
  store ptr @dummy_new, ptr %26, align 8, !tbaa !13
  %27 = getelementptr inbounds nuw i8, ptr %23, i64 40
  store ptr @dummy_dup, ptr %27, align 8, !tbaa !17
  %28 = getelementptr inbounds nuw i8, ptr %23, i64 32
  store ptr @dummy_free, ptr %28, align 8, !tbaa !18
  br label %29

29:                                               ; preds = %21, %13, %18, %25
  %.016 = phi i32 [ 0, %13 ], [ 0, %18 ], [ 0, %21 ], [ 1, %25 ]
  %30 = load ptr, ptr %4, align 8, !tbaa !3
  %31 = tail call i32 @CRYPTO_THREAD_unlock(ptr noundef %30) #9
  br label %get_and_lock.exit.thread

get_and_lock.exit.thread:                         ; preds = %11, %8, %7, %3, %29
  %.0 = phi i32 [ %.016, %29 ], [ 0, %3 ], [ 0, %7 ], [ 0, %8 ], [ 0, %11 ]
  ret i32 %.0
}